; Function Attrs: null_pointer_is_valid sspstrong uwtable
define internal fastcc void @megaco_tree_add_string(ptr noundef %0, i32 noundef %1, ptr noundef %2, i32 noundef %3, i32 noundef %4, ptr noundef %5) unnamed_addr #0 {
  %7 = tail call ptr @proto_tree_add_string(ptr noundef %0, i32 noundef %1, ptr noundef %2, i32 noundef %3, i32 noundef %4, ptr noundef %5)
  %8 = load i8, ptr @global_megaco_dissect_tree, align 1, !range !6, !noundef !7
  %9 = trunc nuw i8 %8 to i1
  %.not.i = icmp eq ptr %7, null
  %or.cond = select i1 %9, i1 true, i1 %.not.i
  br i1 %or.cond, label %proto_item_set_hidden.exit, label %10

10:                                               ; preds = %6
  %11 = getelementptr inbounds nuw i8, ptr %7, i64 40
  %12 = load ptr, ptr %11, align 8
  %.not5.i = icmp eq ptr %12, null
  br i1 %.not5.i, label %proto_item_set_hidden.exit, label %13

13:                                               ; preds = %10
  %14 = getelementptr inbounds nuw i8, ptr %12, i64 28
  %15 = load i32, ptr %14, align 4
  %16 = or i32 %15, 1
  store i32 %16, ptr %14, align 4
  br label %proto_item_set_hidden.exit

proto_item_set_hidden.exit:                       ; preds = %13, %10, %6
  ret void
}